; Function Attrs: nofree nosync nounwind memory(readwrite, inaccessiblemem: none) uwtable
define void @Wlc_WinCleanMark_rec(ptr noundef readonly captures(none) %0, ptr noundef captures(none) %1) local_unnamed_addr #3 {
  %3 = load i16, ptr %1, align 8
  %4 = and i16 %3, 128
  %.not = icmp eq i16 %4, 0
  br i1 %.not, label %.critedge, label %5

5:                                                ; preds = %2
  %6 = and i16 %3, -129
  store i16 %6, ptr %1, align 8
  %7 = getelementptr i8, ptr %1, i64 4
  %.val910 = load i32, ptr %7, align 4, !tbaa !23
  %8 = icmp sgt i32 %.val910, 0
  br i1 %8, label %.lr.ph, label %.critedge

.lr.ph:                                           ; preds = %5
  %9 = getelementptr inbounds nuw i8, ptr %1, i64 16
  %10 = getelementptr i8, ptr %0, i64 640
  br label %11

11:                                               ; preds = %.lr.ph, %Wlc_ObjFaninId.exit
  %indvars.iv = phi i64 [ 0, %.lr.ph ], [ %indvars.iv.next, %Wlc_ObjFaninId.exit ]
  %.val912 = phi i32 [ %.val910, %.lr.ph ], [ %.val9, %Wlc_ObjFaninId.exit ]
  %12 = icmp ugt i32 %.val912, 2
  br i1 %12, label %Wlc_ObjHasArray.exit.thread.i.i, label %13

13:                                               ; preds = %11
  %14 = load i16, ptr %1, align 8
  %15 = and i16 %14, 63
  switch i16 %15, label %Wlc_ObjFaninId.exit [
    i16 6, label %Wlc_ObjHasArray.exit.thread.i.i
    i16 22, label %Wlc_ObjHasArray.exit.thread.i.i
  ]

Wlc_ObjHasArray.exit.thread.i.i:                  ; preds = %13, %13, %11
  %16 = load ptr, ptr %9, align 8, !tbaa !25
  br label %Wlc_ObjFaninId.exit

Wlc_ObjFaninId.exit:                              ; preds = %13, %Wlc_ObjHasArray.exit.thread.i.i
  %17 = phi ptr [ %16, %Wlc_ObjHasArray.exit.thread.i.i ], [ %9, %13 ]
  %18 = getelementptr inbounds nuw i32, ptr %17, i64 %indvars.iv
  %19 = load i32, ptr %18, align 4, !tbaa !20
  %.val = load ptr, ptr %10, align 8, !tbaa !11
  %20 = sext i32 %19 to i64
  %21 = getelementptr inbounds %struct.Wlc_Obj_t_, ptr %.val, i64 %20
  tail call void @Wlc_WinCleanMark_rec(ptr noundef %0, ptr noundef %21)
  %indvars.iv.next = add nuw nsw i64 %indvars.iv, 1
  %.val9 = load i32, ptr %7, align 4, !tbaa !23
  %22 = sext i32 %.val9 to i64
  %23 = icmp slt i64 %indvars.iv.next, %22
  br i1 %23, label %11, label %.critedge, !llvm.loop !29

.critedge:                                        ; preds = %Wlc_ObjFaninId.exit, %5, %2
  ret void
}